target datalayout = "e-m:e-p270:32:32-p271:32:32-p272:64:64-i64:64-i128:128-f80:128-n8:16:32:64-S128"
target triple = "x86_64-pc-linux-gnu"

%struct.expr_counter_proc = type { i32 }
%class.ast_fast_mark = type { %class.ptr_buffer }
%class.ptr_buffer = type { %class.buffer }
%class.buffer = type { ptr, i32, i32, [128 x i8] }

; Function Attrs: mustprogress nounwind uwtable
define linkonce_odr hidden void @_ZN6bufferIP3astLb0ELj16EEC2Ev(ptr noundef nonnull align 8 dereferenceable(144) %0) unnamed_addr #6 comdat align 2 {
  %2 = alloca ptr, align 8
  store ptr %0, ptr %2, align 8, !tbaa !119
  %3 = load ptr, ptr %2, align 8
  %4 = getelementptr inbounds nuw %class.buffer, ptr %3, i32 0, i32 0
  %5 = getelementptr inbounds nuw %class.buffer, ptr %3, i32 0, i32 3
  %6 = getelementptr inbounds [128 x i8], ptr %5, i64 0, i64 0
  store ptr %6, ptr %4, align 8, !tbaa !121
  %7 = getelementptr inbounds nuw %class.buffer, ptr %3, i32 0, i32 1
  store i32 0, ptr %7, align 8, !tbaa !124
  %8 = getelementptr inbounds nuw %class.buffer, ptr %3, i32 0, i32 2
  store i32 16, ptr %8, align 4, !tbaa !125
  ret void
}

; Function Attrs: mustprogress nounwind uwtable
define linkonce_odr hidden void @_ZN17expr_counter_procC2Ev(ptr noundef nonnull align 4 dereferenceable(4) %0) unnamed_addr #6 comdat align 2 {
  %2 = alloca ptr, align 8
  store ptr %0, ptr %2, align 8, !tbaa !13
  %3 = load ptr, ptr %2, align 8
  %4 = getelementptr inbounds nuw %struct.expr_counter_proc, ptr %3, i32 0, i32 0
  store i32 0, ptr %4, align 4, !tbaa !10
  ret void
}

; Function Attrs: inlinehint mustprogress nounwind uwtable
define linkonce_odr hidden void @_ZN10ptr_bufferI3astLj16EEC2Ev(ptr noundef nonnull align 8 dereferenceable(144) %0) unnamed_addr #7 comdat align 2 {
  %2 = alloca ptr, align 8
  store ptr %0, ptr %2, align 8, !tbaa !117
  %3 = load ptr, ptr %2, align 8
  call void @_ZN6bufferIP3astLb0ELj16EEC2Ev(ptr noundef nonnull align 8 dereferenceable(144) %3) #3
  ret void
}

; Function Attrs: mustprogress uwtable
define hidden noundef i32 @_Z13get_num_exprsP4exprR13ast_fast_markILj1EE(ptr noundef %0, ptr noundef nonnull align 8 dereferenceable(144) %1) #4 {
  %3 = alloca ptr, align 8
  %4 = alloca ptr, align 8
  %5 = alloca %struct.expr_counter_proc, align 4
  store ptr %0, ptr %3, align 8, !tbaa !3
  store ptr %1, ptr %4, align 8, !tbaa !15
  call void @llvm.lifetime.start.p0(i64 4, ptr %5) #3
  call void @_ZN17expr_counter_procC2Ev(ptr noundef nonnull align 4 dereferenceable(4) %5)
  %6 = load ptr, ptr %4, align 8, !tbaa !15
  %7 = load ptr, ptr %3, align 8, !tbaa !3
  call void @_Z18for_each_expr_coreI17expr_counter_proc13ast_fast_markILj1EELb0ELb0EEvRT_RT0_P4expr(ptr noundef nonnull align 4 dereferenceable(4) %5, ptr noundef nonnull align 8 dereferenceable(144) %6, ptr noundef %7)
  %8 = getelementptr inbounds nuw %struct.expr_counter_proc, ptr %5, i32 0, i32 0
  %9 = load i32, ptr %8, align 4, !tbaa !10
  call void @llvm.lifetime.end.p0(i64 4, ptr %5) #3
  ret i32 %9
}

; Function Attrs: inlinehint mustprogress nounwind uwtable
define linkonce_odr hidden void @_ZN13ast_fast_markILj1EEC2Ev(ptr noundef nonnull align 8 dereferenceable(144) %0) unnamed_addr #7 comdat align 2 {
  %2 = alloca ptr, align 8
  store ptr %0, ptr %2, align 8, !tbaa !15
  %3 = load ptr, ptr %2, align 8
  %4 = getelementptr inbounds nuw %class.ast_fast_mark, ptr %3, i32 0, i32 0
  call void @_ZN10ptr_bufferI3astLj16EEC2Ev(ptr noundef nonnull align 8 dereferenceable(144) %4) #3
  ret void
}

; Function Attrs: mustprogress uwtable
define hidden noundef i32 @_Z13get_num_exprsP4expr(ptr noundef %0) #4 personality ptr @__gxx_personality_v0 {
  %2 = alloca ptr, align 8
  %3 = alloca %class.ast_fast_mark, align 8
  %4 = alloca ptr, align 8
  %5 = alloca i32, align 4
  store ptr %0, ptr %2, align 8, !tbaa !3
  call void @llvm.lifetime.start.p0(i64 144, ptr %3) #3
  call void @_ZN13ast_fast_markILj1EEC2Ev(ptr noundef nonnull align 8 dereferenceable(144) %3) #3
  %6 = load ptr, ptr %2, align 8, !tbaa !3
  %7 = invoke noundef i32 @_Z13get_num_exprsP4exprR13ast_fast_markILj1EE(ptr noundef %6, ptr noundef nonnull align 8 dereferenceable(144) %3)
          to label %8 unwind label %9

8:                                                ; preds = %1
  call void @_ZN13ast_fast_markILj1EED2Ev(ptr noundef nonnull align 8 dereferenceable(144) %3) #3
  call void @llvm.lifetime.end.p0(i64 144, ptr %3) #3
  ret i32 %7

9:                                                ; preds = %1
  %10 = landingpad { ptr, i32 }
          cleanup
  %11 = extractvalue { ptr, i32 } %10, 0
  store ptr %11, ptr %4, align 8
  %12 = extractvalue { ptr, i32 } %10, 1
  store i32 %12, ptr %5, align 4
  call void @_ZN13ast_fast_markILj1EED2Ev(ptr noundef nonnull align 8 dereferenceable(144) %3) #3
  call void @llvm.lifetime.end.p0(i64 144, ptr %3) #3
  br label %13

13:                                               ; preds = %9
  %14 = load ptr, ptr %4, align 8
  %15 = load i32, ptr %5, align 4
  %16 = insertvalue { ptr, i32 } poison, ptr %14, 0
  %17 = insertvalue { ptr, i32 } %16, i32 %15, 1
  resume { ptr, i32 } %17
}