; Function Attrs: mustprogress uwtable
define hidden noundef i32 @_Z13get_num_exprsP4expr(ptr noundef %0) local_unnamed_addr #3 personality ptr @__gxx_personality_v0 {
  %2 = alloca %struct.expr_counter_proc, align 4
  %3 = alloca %class.ast_fast_mark, align 8
  call void @llvm.lifetime.start.p0(i64 144, ptr nonnull %3) #24
  %4 = getelementptr inbounds nuw i8, ptr %3, i64 16
  store ptr %4, ptr %3, align 8, !tbaa !16
  %5 = getelementptr inbounds nuw i8, ptr %3, i64 8
  store i32 0, ptr %5, align 8, !tbaa !10
  %6 = getelementptr inbounds nuw i8, ptr %3, i64 12
  store i32 16, ptr %6, align 4, !tbaa !15
  call void @llvm.lifetime.start.p0(i64 4, ptr nonnull %2) #24
  store i32 0, ptr %2, align 4, !tbaa !3
  invoke void @_Z18for_each_expr_coreI17expr_counter_proc13ast_fast_markILj1EELb0ELb0EEvRT_RT0_P4expr(ptr noundef nonnull align 4 dereferenceable(4) %2, ptr noundef nonnull align 8 dereferenceable(144) %3, ptr noundef %0)
          to label %7 unwind label %24

7:                                                ; preds = %1
  %8 = load i32, ptr %2, align 4, !tbaa !3
  call void @llvm.lifetime.end.p0(i64 4, ptr nonnull %2) #24
  %9 = load ptr, ptr %3, align 8, !tbaa !16
  %10 = load i32, ptr %5, align 8, !tbaa !10
  %11 = zext i32 %10 to i64
  %12 = getelementptr inbounds nuw ptr, ptr %9, i64 %11
  %.not8.i.i = icmp eq i32 %10, 0
  br i1 %.not8.i.i, label %.loopexit.i, label %.lr.ph.i.i

.lr.ph.i.i:                                       ; preds = %7, %.lr.ph.i.i
  %.09.i.i = phi ptr [ %17, %.lr.ph.i.i ], [ %9, %7 ]
  %13 = load ptr, ptr %.09.i.i, align 8, !tbaa !17
  %14 = getelementptr inbounds nuw i8, ptr %13, i64 4
  %15 = load i32, ptr %14, align 4
  %16 = and i32 %15, -65537
  store i32 %16, ptr %14, align 4
  %17 = getelementptr inbounds nuw i8, ptr %.09.i.i, i64 8
  %.not.i.i = icmp eq ptr %17, %12
  br i1 %.not.i.i, label %.loopexit.loopexit.i, label %.lr.ph.i.i

.loopexit.loopexit.i:                             ; preds = %.lr.ph.i.i
  %.pre.i = load ptr, ptr %3, align 8, !tbaa !16
  br label %.loopexit.i

.loopexit.i:                                      ; preds = %.loopexit.loopexit.i, %7
  %18 = phi ptr [ %.pre.i, %.loopexit.loopexit.i ], [ %9, %7 ]
  store i32 0, ptr %5, align 8, !tbaa !10
  %.not.i.i.i.i = icmp eq ptr %18, %4
  %19 = icmp eq ptr %18, null
  %or.cond.i.i.i.i = or i1 %.not.i.i.i.i, %19
  br i1 %or.cond.i.i.i.i, label %_ZN13ast_fast_markILj1EED2Ev.exit, label %20

20:                                               ; preds = %.loopexit.i
  invoke void @_ZN6memory10deallocateEPv(ptr noundef nonnull %18)
          to label %_ZN13ast_fast_markILj1EED2Ev.exit unwind label %21

21:                                               ; preds = %20
  %22 = landingpad { ptr, i32 }
          catch ptr null
  %23 = extractvalue { ptr, i32 } %22, 0
  call void @__clang_call_terminate(ptr %23) #25
  unreachable

_ZN13ast_fast_markILj1EED2Ev.exit:                ; preds = %.loopexit.i, %20
  call void @llvm.lifetime.end.p0(i64 144, ptr nonnull %3) #24
  ret i32 %8

24:                                               ; preds = %1
  %25 = landingpad { ptr, i32 }
          cleanup
  call void @_ZN13ast_fast_markILj1EED2Ev(ptr noundef nonnull align 8 dereferenceable(144) %3) #24
  call void @llvm.lifetime.end.p0(i64 144, ptr nonnull %3) #24
  resume { ptr, i32 } %25
}